target datalayout = "e-m:e-p270:32:32-p271:32:32-p272:64:64-i64:64-i128:128-f80:128-n8:16:32:64-S128"
target triple = "x86_64-pc-linux-gnu"

@custom_md_init_called = internal global i32 0, align 4

; Function Attrs: nounwind uwtable
define internal i32 @custom_md_init(ptr noundef %0) #0 {
  %2 = alloca i32, align 4
  %3 = alloca ptr, align 8
  %4 = alloca ptr, align 8
  %5 = alloca i32, align 4
  store ptr %0, ptr %3, align 8, !tbaa !25
  call void @llvm.lifetime.start.p0(i64 8, ptr %4) #8
  %6 = load ptr, ptr %3, align 8, !tbaa !25
  %7 = call ptr @EVP_MD_CTX_get0_md_data(ptr noundef %6)
  store ptr %7, ptr %4, align 8, !tbaa !54
  %8 = load ptr, ptr %4, align 8, !tbaa !54
  %9 = icmp eq ptr %8, null
  br i1 %9, label %10, label %11

10:                                               ; preds = %1
  store i32 0, ptr %2, align 4
  store i32 1, ptr %5, align 4
  br label %14

11:                                               ; preds = %1
  %12 = load i32, ptr @custom_md_init_called, align 4, !tbaa !9
  %13 = add nsw i32 %12, 1
  store i32 %13, ptr @custom_md_init_called, align 4, !tbaa !9
  store i32 1, ptr %2, align 4
  store i32 1, ptr %5, align 4
  br label %14

14:                                               ; preds = %11, %10
  call void @llvm.lifetime.end.p0(i64 8, ptr %4) #8
  %15 = load i32, ptr %2, align 4
  ret i32 %15
}