; Function Attrs: nounwind uwtable
define internal range(i32 0, 2) i32 @custom_md_init(ptr noundef %0) #1 {
  %2 = tail call ptr @EVP_MD_CTX_get0_md_data(ptr noundef %0) #9
  %3 = icmp eq ptr %2, null
  br i1 %3, label %7, label %4

4:                                                ; preds = %1
  %5 = load i32, ptr @custom_md_init_called, align 4, !tbaa !25
  %6 = add nsw i32 %5, 1
  store i32 %6, ptr @custom_md_init_called, align 4, !tbaa !25
  br label %7

7:                                                ; preds = %1, %4
  %.0 = phi i32 [ 1, %4 ], [ 0, %1 ]
  ret i32 %.0
}